target datalayout = "e-m:e-p270:32:32-p271:32:32-p272:64:64-i64:64-i128:128-f80:128-n8:16:32:64-S128"
target triple = "x86_64-pc-linux-gnu"

%struct.Abc_Ntk_t_ = type { i32, i32, ptr, ptr, ptr, ptr, ptr, ptr, ptr, ptr, ptr, ptr, ptr, [11 x i32], i32, i32, i32, i32, ptr, i32, ptr, ptr, i32, i32, i32, double, i32, %struct.Vec_Int_t_, ptr, ptr, ptr, ptr, ptr, float, i32, ptr, ptr, ptr, ptr, ptr, ptr, ptr, ptr, ptr, ptr, ptr, ptr, ptr, ptr, ptr, ptr, ptr, ptr, ptr, ptr, ptr, ptr }
%struct.Vec_Int_t_ = type { i32, i32, ptr }
%struct.Abc_Obj_t_ = type { ptr, ptr, i32, i32, %struct.Vec_Int_t_, %struct.Vec_Int_t_, %union.anon, %union.anon.0 }
%union.anon = type { ptr }
%union.anon.0 = type { ptr }

@.str.3 = private unnamed_addr constant [24 x i8] c"Node %s should be among\00", align 1
@.str.4 = private unnamed_addr constant [27 x i8] c" the fanins of node %s...\0A\00", align 1

; Function Attrs: inlinehint nounwind uwtable
define internal i32 @Vec_IntFind(ptr noundef %0, i32 noundef %1) #2 {
  %3 = alloca i32, align 4
  %4 = alloca ptr, align 8
  %5 = alloca i32, align 4
  %6 = alloca i32, align 4
  %7 = alloca i32, align 4
  store ptr %0, ptr %4, align 8, !tbaa !85
  store i32 %1, ptr %5, align 4, !tbaa !8
  call void @llvm.lifetime.start.p0(i64 4, ptr %6) #7
  store i32 0, ptr %6, align 4, !tbaa !8
  br label %8

8:                                                ; preds = %27, %2
  %9 = load i32, ptr %6, align 4, !tbaa !8
  %10 = load ptr, ptr %4, align 8, !tbaa !85
  %11 = getelementptr inbounds nuw %struct.Vec_Int_t_, ptr %10, i32 0, i32 1
  %12 = load i32, ptr %11, align 4, !tbaa !86
  %13 = icmp slt i32 %9, %12
  br i1 %13, label %14, label %30

14:                                               ; preds = %8
  %15 = load ptr, ptr %4, align 8, !tbaa !85
  %16 = getelementptr inbounds nuw %struct.Vec_Int_t_, ptr %15, i32 0, i32 2
  %17 = load ptr, ptr %16, align 8, !tbaa !87
  %18 = load i32, ptr %6, align 4, !tbaa !8
  %19 = sext i32 %18 to i64
  %20 = getelementptr inbounds i32, ptr %17, i64 %19
  %21 = load i32, ptr %20, align 4, !tbaa !8
  %22 = load i32, ptr %5, align 4, !tbaa !8
  %23 = icmp eq i32 %21, %22
  br i1 %23, label %24, label %26

24:                                               ; preds = %14
  %25 = load i32, ptr %6, align 4, !tbaa !8
  store i32 %25, ptr %3, align 4
  store i32 1, ptr %7, align 4
  br label %31

26:                                               ; preds = %14
  br label %27

27:                                               ; preds = %26
  %28 = load i32, ptr %6, align 4, !tbaa !8
  %29 = add nsw i32 %28, 1
  store i32 %29, ptr %6, align 4, !tbaa !8
  br label %8, !llvm.loop !88

30:                                               ; preds = %8
  store i32 -1, ptr %3, align 4
  store i32 1, ptr %7, align 4
  br label %31

31:                                               ; preds = %30, %24
  call void @llvm.lifetime.end.p0(i64 4, ptr %6) #7
  %32 = load i32, ptr %3, align 4
  ret i32 %32
}

; Function Attrs: nounwind uwtable
define void @Abc_NodeConstantInput(ptr noundef %0, ptr noundef %1, i32 noundef %2) #0 {
  %4 = alloca ptr, align 8
  %5 = alloca ptr, align 8
  %6 = alloca i32, align 4
  %7 = alloca ptr, align 8
  %8 = alloca ptr, align 8
  %9 = alloca ptr, align 8
  %10 = alloca i32, align 4
  %11 = alloca i32, align 4
  store ptr %0, ptr %4, align 8, !tbaa !26
  store ptr %1, ptr %5, align 8, !tbaa !26
  store i32 %2, ptr %6, align 4, !tbaa !8
  call void @llvm.lifetime.start.p0(i64 8, ptr %7) #7
  %12 = load ptr, ptr %4, align 8, !tbaa !26
  %13 = getelementptr inbounds nuw %struct.Abc_Obj_t_, ptr %12, i32 0, i32 0
  %14 = load ptr, ptr %13, align 8, !tbaa !79
  %15 = getelementptr inbounds nuw %struct.Abc_Ntk_t_, ptr %14, i32 0, i32 30
  %16 = load ptr, ptr %15, align 8, !tbaa !33
  store ptr %16, ptr %7, align 8, !tbaa !80
  call void @llvm.lifetime.start.p0(i64 8, ptr %8) #7
  call void @llvm.lifetime.start.p0(i64 8, ptr %9) #7
  call void @llvm.lifetime.start.p0(i64 4, ptr %10) #7
  %17 = load ptr, ptr %4, align 8, !tbaa !26
  %18 = getelementptr inbounds nuw %struct.Abc_Obj_t_, ptr %17, i32 0, i32 4
  %19 = load ptr, ptr %5, align 8, !tbaa !26
  %20 = getelementptr inbounds nuw %struct.Abc_Obj_t_, ptr %19, i32 0, i32 2
  %21 = load i32, ptr %20, align 8, !tbaa !82
  %22 = call i32 @Vec_IntFind(ptr noundef %18, i32 noundef %21)
  store i32 %22, ptr %10, align 4, !tbaa !8
  %23 = icmp eq i32 %22, -1
  br i1 %23, label %24, label %31

24:                                               ; preds = %3
  %25 = load ptr, ptr %5, align 8, !tbaa !26
  %26 = call ptr @Abc_ObjName(ptr noundef %25)
  %27 = call i32 (ptr, ...) @printf(ptr noundef @.str.3, ptr noundef %26)
  %28 = load ptr, ptr %4, align 8, !tbaa !26
  %29 = call ptr @Abc_ObjName(ptr noundef %28)
  %30 = call i32 (ptr, ...) @printf(ptr noundef @.str.4, ptr noundef %29)
  store i32 1, ptr %11, align 4
  br label %53

31:                                               ; preds = %3
  %32 = load ptr, ptr %7, align 8, !tbaa !80
  %33 = load i32, ptr %10, align 4, !tbaa !8
  %34 = call ptr @Cudd_bddIthVar(ptr noundef %32, i32 noundef %33)
  %35 = ptrtoint ptr %34 to i64
  %36 = load i32, ptr %6, align 4, !tbaa !8
  %37 = sext i32 %36 to i64
  %38 = xor i64 %35, %37
  %39 = inttoptr i64 %38 to ptr
  store ptr %39, ptr %8, align 8, !tbaa !83
  %40 = load ptr, ptr %7, align 8, !tbaa !80
  %41 = load ptr, ptr %4, align 8, !tbaa !26
  %42 = getelementptr inbounds nuw %struct.Abc_Obj_t_, ptr %41, i32 0, i32 6
  %43 = load ptr, ptr %42, align 8, !tbaa !28
  store ptr %43, ptr %9, align 8, !tbaa !83
  %44 = load ptr, ptr %8, align 8, !tbaa !83
  %45 = call ptr @Cudd_Cofactor(ptr noundef %40, ptr noundef %43, ptr noundef %44)
  %46 = load ptr, ptr %4, align 8, !tbaa !26
  %47 = getelementptr inbounds nuw %struct.Abc_Obj_t_, ptr %46, i32 0, i32 6
  store ptr %45, ptr %47, align 8, !tbaa !28
  %48 = load ptr, ptr %4, align 8, !tbaa !26
  %49 = getelementptr inbounds nuw %struct.Abc_Obj_t_, ptr %48, i32 0, i32 6
  %50 = load ptr, ptr %49, align 8, !tbaa !28
  call void @Cudd_Ref(ptr noundef %50)
  %51 = load ptr, ptr %7, align 8, !tbaa !80
  %52 = load ptr, ptr %9, align 8, !tbaa !83
  call void @Cudd_RecursiveDeref(ptr noundef %51, ptr noundef %52)
  store i32 0, ptr %11, align 4
  br label %53

53:                                               ; preds = %31, %24
  call void @llvm.lifetime.end.p0(i64 4, ptr %10) #7
  call void @llvm.lifetime.end.p0(i64 8, ptr %9) #7
  call void @llvm.lifetime.end.p0(i64 8, ptr %8) #7
  call void @llvm.lifetime.end.p0(i64 8, ptr %7) #7
  %54 = load i32, ptr %11, align 4
  switch i32 %54, label %56 [
    i32 0, label %55
    i32 1, label %55
  ]

55:                                               ; preds = %53, %53
  ret void

56:                                               ; preds = %53
  unreachable
}