; Function Attrs: nounwind uwtable
define void @Abc_NodeConstantInput(ptr noundef %0, ptr noundef %1, i32 noundef %2) local_unnamed_addr #0 {
  %4 = load ptr, ptr %0, align 8, !tbaa !73
  %5 = getelementptr inbounds nuw i8, ptr %4, i64 256
  %6 = load ptr, ptr %5, align 8, !tbaa !36
  %7 = getelementptr inbounds nuw i8, ptr %1, i64 16
  %8 = load i32, ptr %7, align 8, !tbaa !84
  %9 = getelementptr inbounds nuw i8, ptr %0, i64 28
  %10 = load i32, ptr %9, align 4, !tbaa !85
  %11 = icmp sgt i32 %10, 0
  br i1 %11, label %.lr.ph.i, label %Vec_IntFind.exit.thread

.lr.ph.i:                                         ; preds = %3
  %12 = getelementptr inbounds nuw i8, ptr %0, i64 32
  %13 = load ptr, ptr %12, align 8, !tbaa !86
  %wide.trip.count.i = zext nneg i32 %10 to i64
  br label %14

14:                                               ; preds = %18, %.lr.ph.i
  %indvars.iv.i = phi i64 [ 0, %.lr.ph.i ], [ %indvars.iv.next.i, %18 ]
  %15 = getelementptr inbounds nuw i32, ptr %13, i64 %indvars.iv.i
  %16 = load i32, ptr %15, align 4, !tbaa !54
  %17 = icmp eq i32 %16, %8
  br i1 %17, label %Vec_IntFind.exit, label %18

18:                                               ; preds = %14
  %indvars.iv.next.i = add nuw nsw i64 %indvars.iv.i, 1
  %exitcond.not.i = icmp eq i64 %indvars.iv.next.i, %wide.trip.count.i
  br i1 %exitcond.not.i, label %Vec_IntFind.exit.thread, label %14, !llvm.loop !87

Vec_IntFind.exit.thread:                          ; preds = %18, %3
  %19 = tail call ptr @Abc_ObjName(ptr noundef %1) #11
  %20 = tail call i32 (ptr, ...) @printf(ptr noundef nonnull dereferenceable(1) @.str.3, ptr noundef %19)
  %21 = tail call ptr @Abc_ObjName(ptr noundef nonnull %0) #11
  %22 = tail call i32 (ptr, ...) @printf(ptr noundef nonnull dereferenceable(1) @.str.4, ptr noundef %21)
  br label %32

Vec_IntFind.exit:                                 ; preds = %14
  %23 = trunc nuw nsw i64 %indvars.iv.i to i32
  %24 = tail call ptr @Cudd_bddIthVar(ptr noundef %6, i32 noundef %23) #11
  %25 = ptrtoint ptr %24 to i64
  %26 = sext i32 %2 to i64
  %27 = xor i64 %25, %26
  %28 = inttoptr i64 %27 to ptr
  %29 = getelementptr inbounds nuw i8, ptr %0, i64 56
  %30 = load ptr, ptr %29, align 8, !tbaa !30
  %31 = tail call ptr @Cudd_Cofactor(ptr noundef %6, ptr noundef %30, ptr noundef %28) #11
  store ptr %31, ptr %29, align 8, !tbaa !30
  tail call void @Cudd_Ref(ptr noundef %31) #11
  tail call void @Cudd_RecursiveDeref(ptr noundef %6, ptr noundef %30) #11
  br label %32

32:                                               ; preds = %Vec_IntFind.exit, %Vec_IntFind.exit.thread
  ret void
}